; Function Attrs: nounwind uwtable
define hidden noundef ptr @SDL_hid_open_path_REAL(ptr noundef %0) local_unnamed_addr #1 {
  %2 = load i32, ptr @SDL_hidapi_refcount, align 4
  %3 = icmp eq i32 %2, 0
  br i1 %3, label %4, label %8

4:                                                ; preds = %1
  %5 = tail call i32 @SDL_hid_init_REAL()
  %6 = icmp slt i32 %5, 0
  %7 = load ptr, ptr @udev_ctx, align 8
  %.not = icmp eq ptr %7, null
  %or.cond = select i1 %6, i1 true, i1 %.not
  br i1 %or.cond, label %15, label %9

8:                                                ; preds = %1
  %.old = load ptr, ptr @udev_ctx, align 8
  %.not.old = icmp eq ptr %.old, null
  br i1 %.not.old, label %15, label %9

9:                                                ; preds = %4, %8
  %10 = tail call ptr @PLATFORM_hid_open_path(ptr noundef %0)
  %.not5 = icmp eq ptr %10, null
  br i1 %.not5, label %15, label %11

11:                                               ; preds = %9
  %12 = tail call noalias ptr @SDL_malloc_REAL(i64 noundef 96) #22
  tail call void @SDL_SetObjectValid(ptr noundef %12, i32 noundef 8, i1 noundef zeroext true) #22
  store ptr %10, ptr %12, align 8
  %13 = getelementptr inbounds nuw i8, ptr %12, i64 8
  store ptr @PLATFORM_Backend, ptr %13, align 8
  %14 = getelementptr inbounds nuw i8, ptr %12, i64 16
  tail call void @llvm.memset.p0.i64(ptr noundef nonnull align 8 dereferenceable(80) %14, i8 0, i64 80, i1 false)
  br label %15

15:                                               ; preds = %8, %9, %4, %11
  %.0 = phi ptr [ %12, %11 ], [ null, %4 ], [ null, %9 ], [ null, %8 ]
  ret ptr %.0
}